; Function Attrs: nofree nounwind uwtable
define void @Gia_MiniAigSuperPrintDouble(ptr noundef readonly captures(none) %0, i32 noundef %1) local_unnamed_addr #9 {
  %putchar = tail call i32 @putchar(i32 10)
  %3 = getelementptr i8, ptr %0, i64 4
  %.val1011 = load i32, ptr %3, align 4, !tbaa !34
  %4 = icmp sgt i32 %.val1011, 0
  br i1 %4, label %.lr.ph, label %.critedge

.lr.ph:                                           ; preds = %2
  %5 = getelementptr i8, ptr %0, i64 8
  br label %6

6:                                                ; preds = %.lr.ph, %6
  %indvars.iv = phi i64 [ 0, %.lr.ph ], [ %indvars.iv.next, %6 ]
  %.val = load ptr, ptr %5, align 8, !tbaa !11
  %7 = getelementptr inbounds nuw i32, ptr %.val, i64 %indvars.iv
  %8 = load i32, ptr %7, align 4, !tbaa !10
  %9 = srem i32 %8, %1
  %10 = sdiv i32 %8, %1
  %11 = tail call i32 (ptr, ...) @printf(ptr noundef nonnull dereferenceable(1) @.str.23, i32 noundef %9, i32 noundef %10)
  %indvars.iv.next = add nuw nsw i64 %indvars.iv, 1
  %.val10 = load i32, ptr %3, align 4, !tbaa !34
  %12 = sext i32 %.val10 to i64
  %13 = icmp slt i64 %indvars.iv.next, %12
  br i1 %13, label %6, label %.critedge, !llvm.loop !141

.critedge:                                        ; preds = %6, %2
  %.val10.lcssa = phi i32 [ %.val1011, %2 ], [ %.val10, %6 ]
  %14 = tail call i32 (ptr, ...) @printf(ptr noundef nonnull dereferenceable(1) @.str.24, i32 noundef %.val10.lcssa)
  ret void
}